target datalayout = "e-m:e-p270:32:32-p271:32:32-p272:64:64-i64:64-i128:128-f80:128-n8:16:32:64-S128"
target triple = "x86_64-pc-linux-gnu"

%struct._GLFWlibrary = type { i32, %struct.GLFWallocator, %struct._GLFWplatform, %struct.anon.8, ptr, ptr, ptr, ptr, i32, i32, [16 x %struct._GLFWjoystick], ptr, i32, %struct._GLFWtls, %struct._GLFWtls, %struct._GLFWmutex, %struct.anon.16, %struct.anon.17, %struct.anon.18, %struct.anon.19, %struct.anon.20, %struct._GLFWlibraryWayland, %struct._GLFWlibraryX11, %struct._GLFWlibraryNull, %struct._GLFWlibraryGLX, %struct._GLFWlibraryLinux }
%struct.GLFWallocator = type { ptr, ptr, ptr, ptr }
%struct._GLFWplatform = type { i32, ptr, ptr, ptr, ptr, ptr, ptr, ptr, ptr, ptr, ptr, ptr, ptr, ptr, ptr, ptr, ptr, ptr, ptr, ptr, ptr, ptr, ptr, ptr, ptr, ptr, ptr, ptr, ptr, ptr, ptr, ptr, ptr, ptr, ptr, ptr, ptr, ptr, ptr, ptr, ptr, ptr, ptr, ptr, ptr, ptr, ptr, ptr, ptr, ptr, ptr, ptr, ptr, ptr, ptr, ptr, ptr, ptr, ptr, ptr, ptr, ptr, ptr, ptr, ptr, ptr, ptr, ptr, ptr, ptr, ptr, ptr }
%struct.anon.8 = type { %struct._GLFWinitconfig, %struct._GLFWfbconfig, %struct._GLFWwndconfig, %struct._GLFWctxconfig, i32 }
%struct._GLFWinitconfig = type { i32, i32, i32, ptr, %struct.anon.9, %struct.anon.10, %struct.anon.11 }
%struct.anon.9 = type { i32, i32 }
%struct.anon.10 = type { i32 }
%struct.anon.11 = type { i32 }
%struct._GLFWfbconfig = type { i32, i32, i32, i32, i32, i32, i32, i32, i32, i32, i32, i32, i32, i32, i32, i32, i64 }
%struct._GLFWwndconfig = type { i32, i32, i32, i32, ptr, i32, i32, i32, i32, i32, i32, i32, i32, i32, i32, i32, i32, %struct.anon.12, %struct.anon.13, %struct.anon.14, %struct.anon.15 }
%struct.anon.12 = type { [256 x i8] }
%struct.anon.13 = type { [256 x i8], [256 x i8] }
%struct.anon.14 = type { i32, i32 }
%struct.anon.15 = type { [256 x i8] }
%struct._GLFWctxconfig = type { i32, i32, i32, i32, i32, i32, i32, i32, i32, i32, ptr, %struct.anon }
%struct.anon = type { i32 }
%struct._GLFWjoystick = type { i32, i32, ptr, i32, ptr, i32, ptr, i32, [128 x i8], ptr, [33 x i8], ptr, %struct._GLFWjoystickLinux }
%struct._GLFWjoystickLinux = type { i32, [4096 x i8], [512 x i32], [64 x i32], [64 x %struct.input_absinfo], [4 x [2 x i32]] }
%struct.input_absinfo = type { i32, i32, i32, i32, i32, i32 }
%struct._GLFWtls = type { %struct._GLFWtlsPOSIX }
%struct._GLFWtlsPOSIX = type { i32, i32 }
%struct._GLFWmutex = type { %struct._GLFWmutexPOSIX }
%struct._GLFWmutexPOSIX = type { i32, %union.pthread_mutex_t }
%union.pthread_mutex_t = type { %struct.__pthread_mutex_s }
%struct.__pthread_mutex_s = type { i32, i32, i32, i32, i32, i16, i16, %struct.__pthread_internal_list }
%struct.__pthread_internal_list = type { ptr, ptr }
%struct.anon.16 = type { i64, %struct._GLFWtimerPOSIX }
%struct._GLFWtimerPOSIX = type { i32, i64 }
%struct.anon.17 = type { i32, ptr, i32, i32, i32, i32, i32, i32, i32, i32, i32, i32, i32, i32, i32, i32, i32, i32, i32, i32, ptr, ptr, ptr, ptr, ptr, ptr, ptr, ptr, ptr, ptr, ptr, ptr, ptr, ptr, ptr, ptr, ptr, ptr, ptr }
%struct.anon.18 = type { ptr, ptr, ptr, ptr, ptr, ptr, ptr, ptr }
%struct.anon.19 = type { i32, ptr, [2 x ptr], ptr, i32, i32, i32, i32, i32, i32, i32 }
%struct.anon.20 = type { ptr, ptr }
%struct._GLFWlibraryWayland = type { ptr, ptr, ptr, ptr, ptr, ptr, ptr, ptr, ptr, ptr, ptr, ptr, ptr, ptr, ptr, ptr, ptr, ptr, ptr, i32, ptr, ptr, ptr, ptr, i32, ptr, ptr, ptr, ptr, ptr, i32, i32, i32, i32, i32, i32, i32, ptr, [256 x i16], [349 x i16], [349 x [5 x i8]], %struct.anon.21, ptr, ptr, %struct.anon.22, %struct.anon.23, %struct.anon.24, %struct.anon.25 }
%struct.anon.21 = type { ptr, ptr, ptr, ptr, ptr, i32, i32, i32, i32, i32, i32, i32, ptr, ptr, ptr, ptr, ptr, ptr, ptr, ptr, ptr, ptr, ptr, ptr, ptr, ptr, ptr, ptr, ptr, ptr, ptr, ptr }
%struct.anon.22 = type { ptr, ptr, ptr, ptr, ptr, ptr, ptr, ptr, ptr, ptr, ptr, ptr, ptr, ptr, ptr, ptr, ptr, ptr, ptr, ptr }
%struct.anon.23 = type { ptr, ptr, ptr, ptr, ptr }
%struct.anon.24 = type { ptr, ptr, ptr, ptr }
%struct.anon.25 = type { ptr, ptr, ptr, i32, ptr, ptr, ptr, ptr, ptr, ptr, ptr, ptr, ptr, ptr, ptr, ptr, ptr, ptr, ptr, ptr, ptr, ptr, ptr, ptr, ptr, ptr, ptr, ptr, ptr }
%struct._GLFWlibraryX11 = type { ptr, i32, i64, float, float, i64, i64, i32, ptr, ptr, i32, ptr, ptr, [349 x [5 x i8]], [256 x i16], [349 x i16], double, double, ptr, [2 x i32], i64, i64, i64, i64, i64, i64, i64, i64, i64, i64, i64, i64, i64, i64, i64, i64, i64, i64, i64, i64, i64, i64, i64, i64, i64, i64, i64, i64, i64, i64, i64, i64, i64, i64, i64, i64, i64, i64, i64, i64, i64, i64, i64, i64, i64, i64, i64, i64, i64, i64, %struct.anon.26, %struct.anon.27, %struct.anon.28, %struct.anon.29, %struct.anon.30, %struct.anon.31, %struct.anon.32, %struct.anon.33, %struct.anon.34, %struct.anon.35, %struct.anon.36, %struct.anon.37, %struct.anon.38 }
%struct.anon.26 = type { ptr, i32, ptr, ptr, ptr, ptr, ptr, ptr, ptr, ptr, ptr, ptr, ptr, ptr, ptr, ptr, ptr, ptr, ptr, ptr, ptr, ptr, ptr, ptr, ptr, ptr, ptr, ptr, ptr, ptr, ptr, ptr, ptr, ptr, ptr, ptr, ptr, ptr, ptr, ptr, ptr, ptr, ptr, ptr, ptr, ptr, ptr, ptr, ptr, ptr, ptr, ptr, ptr, ptr, ptr, ptr, ptr, ptr, ptr, ptr, ptr, ptr, ptr, ptr, ptr, ptr, ptr, ptr, ptr, ptr, ptr, ptr, ptr, ptr, ptr, ptr, ptr, ptr, ptr, ptr, ptr, ptr, ptr, ptr, ptr, ptr, ptr, ptr }
%struct.anon.27 = type { ptr, ptr, ptr, ptr }
%struct.anon.28 = type { i32, ptr, i32, i32, i32, i32, i32, i32, ptr, ptr, ptr, ptr, ptr, ptr, ptr, ptr, ptr, ptr, ptr, ptr, ptr, ptr, ptr, ptr, ptr }
%struct.anon.29 = type { i32, i32, i32, i32, i32, i32, i32, i32, ptr, ptr, ptr, ptr, ptr, ptr, ptr, ptr, ptr }
%struct.anon.30 = type { i32, i32, i32, i32, i32 }
%struct.anon.31 = type { i32, i64, i64 }
%struct.anon.32 = type { ptr, ptr, ptr, ptr, ptr, ptr, ptr }
%struct.anon.33 = type { i32, ptr, i32, i32, ptr, ptr, ptr }
%struct.anon.34 = type { ptr, ptr }
%struct.anon.35 = type { i32, ptr, i32, i32, ptr, ptr, ptr, ptr }
%struct.anon.36 = type { i32, ptr, i32, i32, i32, i32, i32, ptr, ptr }
%struct.anon.37 = type { i32, ptr, i32, i32, i32, i32, ptr, ptr, ptr }
%struct.anon.38 = type { i32, ptr, i32, i32, i32, i32, ptr, ptr, ptr, ptr }
%struct._GLFWlibraryNull = type { i32, i32, ptr, ptr, [121 x i16], [349 x i8] }
%struct._GLFWlibraryGLX = type { i32, i32, i32, i32, ptr, ptr, ptr, ptr, ptr, ptr, ptr, ptr, ptr, ptr, ptr, ptr, ptr, ptr, ptr, ptr, ptr, ptr, ptr, ptr, i32, i32, i32, i32, i32, i32, i32, i32, i32, i32, i32, i32 }
%struct._GLFWlibraryLinux = type { i32, i32, %struct.re_pattern_buffer, i32, i32 }
%struct.re_pattern_buffer = type { ptr, i64, i64, i64, ptr, ptr, i64, i8 }
%struct._GLFWwindow = type { ptr, i32, i32, i32, i32, i32, i32, i32, ptr, i32, %struct.GLFWvidmode, ptr, ptr, ptr, i32, i32, i32, i32, i32, i32, i32, i32, i32, i32, [8 x i8], [349 x i8], double, double, i32, %struct._GLFWcontext, %struct.anon.2, %struct._GLFWwindowWayland, %struct._GLFWwindowX11, %struct._GLFWwindowNull }
%struct.GLFWvidmode = type { i32, i32, i32, i32, i32, i32 }
%struct._GLFWcontext = type { i32, i32, i32, i32, i32, i32, i32, i32, i32, i32, i32, ptr, ptr, ptr, ptr, ptr, ptr, ptr, ptr, ptr, %struct.anon.0, %struct.anon.1, %struct._GLFWcontextGLX }
%struct.anon.0 = type { ptr, ptr, ptr, ptr }
%struct.anon.1 = type { ptr, i32, i32, ptr }
%struct._GLFWcontextGLX = type { ptr, i64 }
%struct.anon.2 = type { ptr, ptr, ptr, ptr, ptr, ptr, ptr, ptr, ptr, ptr, ptr, ptr, ptr, ptr, ptr, ptr, ptr }
%struct._GLFWwindowWayland = type { i32, i32, i32, i32, i32, i32, i32, i32, i32, i32, i32, ptr, ptr, %struct.anon.3, %struct.anon.4, %struct.anon.5, %struct.anon.6, ptr, double, double, ptr, i32, ptr, i64, i64, ptr, i32, ptr, ptr, ptr, ptr, ptr, ptr, %struct.anon.7 }
%struct.anon.3 = type { ptr }
%struct.anon.4 = type { i32, i32, i32, i32, i32, i32 }
%struct.anon.5 = type { ptr, ptr, ptr, i32 }
%struct.anon.6 = type { ptr }
%struct.anon.7 = type { i32, ptr, %struct._GLFWfallbackEdgeWayland, %struct._GLFWfallbackEdgeWayland, %struct._GLFWfallbackEdgeWayland, %struct._GLFWfallbackEdgeWayland, ptr }
%struct._GLFWfallbackEdgeWayland = type { ptr, ptr, ptr }
%struct._GLFWwindowX11 = type { i64, i64, i64, ptr, i32, i32, i32, i32, i32, i32, i32, i32, i32, i32, i32, i32, [256 x i64] }
%struct._GLFWwindowNull = type { i32, i32, i32, i32, i32, i32, i32, i32, i32, i32, i32, float }

@_glfw = external global %struct._GLFWlibrary, align 8
@.str.33 = private unnamed_addr constant [69 x i8] c"Cannot query extension without a current OpenGL or OpenGL ES context\00", align 1
@.str.34 = private unnamed_addr constant [41 x i8] c"Extension name cannot be an empty string\00", align 1
@.str.35 = private unnamed_addr constant [37 x i8] c"Extension string retrieval is broken\00", align 1

; Function Attrs: nounwind uwtable
define hidden i32 @_glfwStringInExtensionString(ptr noundef %0, ptr noundef %1) #0 {
  %3 = alloca i32, align 4
  %4 = alloca ptr, align 8
  %5 = alloca ptr, align 8
  %6 = alloca ptr, align 8
  %7 = alloca ptr, align 8
  %8 = alloca ptr, align 8
  %9 = alloca i32, align 4
  store ptr %0, ptr %4, align 8, !tbaa !87
  store ptr %1, ptr %5, align 8, !tbaa !87
  call void @llvm.lifetime.start.p0(i64 8, ptr %6) #6
  %10 = load ptr, ptr %5, align 8, !tbaa !87
  store ptr %10, ptr %6, align 8, !tbaa !87
  br label %11

11:                                               ; preds = %48, %2
  call void @llvm.lifetime.start.p0(i64 8, ptr %7) #6
  call void @llvm.lifetime.start.p0(i64 8, ptr %8) #6
  %12 = load ptr, ptr %6, align 8, !tbaa !87
  %13 = load ptr, ptr %4, align 8, !tbaa !87
  %14 = call ptr @strstr(ptr noundef %12, ptr noundef %13) #7
  store ptr %14, ptr %7, align 8, !tbaa !87
  %15 = load ptr, ptr %7, align 8, !tbaa !87
  %16 = icmp ne ptr %15, null
  br i1 %16, label %18, label %17

17:                                               ; preds = %11
  store i32 0, ptr %3, align 4
  store i32 1, ptr %9, align 4
  br label %46

18:                                               ; preds = %11
  %19 = load ptr, ptr %7, align 8, !tbaa !87
  %20 = load ptr, ptr %4, align 8, !tbaa !87
  %21 = call i64 @strlen(ptr noundef %20) #7
  %22 = getelementptr inbounds nuw i8, ptr %19, i64 %21
  store ptr %22, ptr %8, align 8, !tbaa !87
  %23 = load ptr, ptr %7, align 8, !tbaa !87
  %24 = load ptr, ptr %6, align 8, !tbaa !87
  %25 = icmp eq ptr %23, %24
  br i1 %25, label %32, label %26

26:                                               ; preds = %18
  %27 = load ptr, ptr %7, align 8, !tbaa !87
  %28 = getelementptr inbounds i8, ptr %27, i64 -1
  %29 = load i8, ptr %28, align 1, !tbaa !179
  %30 = sext i8 %29 to i32
  %31 = icmp eq i32 %30, 32
  br i1 %31, label %32, label %44

32:                                               ; preds = %26, %18
  %33 = load ptr, ptr %8, align 8, !tbaa !87
  %34 = load i8, ptr %33, align 1, !tbaa !179
  %35 = sext i8 %34 to i32
  %36 = icmp eq i32 %35, 32
  br i1 %36, label %42, label %37

37:                                               ; preds = %32
  %38 = load ptr, ptr %8, align 8, !tbaa !87
  %39 = load i8, ptr %38, align 1, !tbaa !179
  %40 = sext i8 %39 to i32
  %41 = icmp eq i32 %40, 0
  br i1 %41, label %42, label %43

42:                                               ; preds = %37, %32
  store i32 2, ptr %9, align 4
  br label %46

43:                                               ; preds = %37
  br label %44

44:                                               ; preds = %43, %26
  %45 = load ptr, ptr %8, align 8, !tbaa !87
  store ptr %45, ptr %6, align 8, !tbaa !87
  store i32 0, ptr %9, align 4
  br label %46

46:                                               ; preds = %44, %42, %17
  call void @llvm.lifetime.end.p0(i64 8, ptr %8) #6
  call void @llvm.lifetime.end.p0(i64 8, ptr %7) #6
  %47 = load i32, ptr %9, align 4
  switch i32 %47, label %50 [
    i32 0, label %48
    i32 2, label %49
  ]

48:                                               ; preds = %46
  br label %11

49:                                               ; preds = %46
  store i32 1, ptr %3, align 4
  store i32 1, ptr %9, align 4
  br label %50

50:                                               ; preds = %49, %46
  call void @llvm.lifetime.end.p0(i64 8, ptr %6) #6
  %51 = load i32, ptr %3, align 4
  ret i32 %51
}

; Function Attrs: nounwind uwtable
define i32 @glfwExtensionSupported(ptr noundef %0) #0 {
  %2 = alloca i32, align 4
  %3 = alloca ptr, align 8
  %4 = alloca ptr, align 8
  %5 = alloca i32, align 4
  %6 = alloca i32, align 4
  %7 = alloca i32, align 4
  %8 = alloca ptr, align 8
  %9 = alloca ptr, align 8
  store ptr %0, ptr %3, align 8, !tbaa !87
  call void @llvm.lifetime.start.p0(i64 8, ptr %4) #6
  %10 = load i32, ptr @_glfw, align 8, !tbaa !104
  %11 = icmp ne i32 %10, 0
  br i1 %11, label %13, label %12

12:                                               ; preds = %1
  call void (i32, ptr, ...) @_glfwInputError(i32 noundef 65537, ptr noundef null)
  store i32 0, ptr %2, align 4
  store i32 1, ptr %5, align 4
  br label %92

13:                                               ; preds = %1
  %14 = call ptr @_glfwPlatformGetTls(ptr noundef getelementptr inbounds nuw (%struct._GLFWlibrary, ptr @_glfw, i32 0, i32 14))
  store ptr %14, ptr %4, align 8, !tbaa !83
  %15 = load ptr, ptr %4, align 8, !tbaa !83
  %16 = icmp ne ptr %15, null
  br i1 %16, label %18, label %17

17:                                               ; preds = %13
  call void (i32, ptr, ...) @_glfwInputError(i32 noundef 65538, ptr noundef @.str.33)
  store i32 0, ptr %2, align 4
  store i32 1, ptr %5, align 4
  br label %92

18:                                               ; preds = %13
  %19 = load ptr, ptr %3, align 8, !tbaa !87
  %20 = load i8, ptr %19, align 1, !tbaa !179
  %21 = sext i8 %20 to i32
  %22 = icmp eq i32 %21, 0
  br i1 %22, label %23, label %24

23:                                               ; preds = %18
  call void (i32, ptr, ...) @_glfwInputError(i32 noundef 65540, ptr noundef @.str.34)
  store i32 0, ptr %2, align 4
  store i32 1, ptr %5, align 4
  br label %92

24:                                               ; preds = %18
  %25 = load ptr, ptr %4, align 8, !tbaa !83
  %26 = getelementptr inbounds nuw %struct._GLFWwindow, ptr %25, i32 0, i32 29
  %27 = getelementptr inbounds nuw %struct._GLFWcontext, ptr %26, i32 0, i32 2
  %28 = load i32, ptr %27, align 8, !tbaa !89
  %29 = icmp sge i32 %28, 3
  br i1 %29, label %30, label %66

30:                                               ; preds = %24
  call void @llvm.lifetime.start.p0(i64 4, ptr %6) #6
  call void @llvm.lifetime.start.p0(i64 4, ptr %7) #6
  %31 = load ptr, ptr %4, align 8, !tbaa !83
  %32 = getelementptr inbounds nuw %struct._GLFWwindow, ptr %31, i32 0, i32 29
  %33 = getelementptr inbounds nuw %struct._GLFWcontext, ptr %32, i32 0, i32 12
  %34 = load ptr, ptr %33, align 8, !tbaa !85
  call void %34(i32 noundef 33309, ptr noundef %7)
  store i32 0, ptr %6, align 4, !tbaa !66
  br label %35

35:                                               ; preds = %59, %30
  %36 = load i32, ptr %6, align 4, !tbaa !66
  %37 = load i32, ptr %7, align 4, !tbaa !66
  %38 = icmp slt i32 %36, %37
  br i1 %38, label %39, label %62

39:                                               ; preds = %35
  call void @llvm.lifetime.start.p0(i64 8, ptr %8) #6
  %40 = load ptr, ptr %4, align 8, !tbaa !83
  %41 = getelementptr inbounds nuw %struct._GLFWwindow, ptr %40, i32 0, i32 29
  %42 = getelementptr inbounds nuw %struct._GLFWcontext, ptr %41, i32 0, i32 11
  %43 = load ptr, ptr %42, align 8, !tbaa !91
  %44 = load i32, ptr %6, align 4, !tbaa !66
  %45 = call ptr %43(i32 noundef 7939, i32 noundef %44)
  store ptr %45, ptr %8, align 8, !tbaa !87
  %46 = load ptr, ptr %8, align 8, !tbaa !87
  %47 = icmp ne ptr %46, null
  br i1 %47, label %49, label %48

48:                                               ; preds = %39
  call void (i32, ptr, ...) @_glfwInputError(i32 noundef 65544, ptr noundef @.str.35)
  store i32 0, ptr %2, align 4
  store i32 1, ptr %5, align 4
  br label %56

49:                                               ; preds = %39
  %50 = load ptr, ptr %8, align 8, !tbaa !87
  %51 = load ptr, ptr %3, align 8, !tbaa !87
  %52 = call i32 @strcmp(ptr noundef %50, ptr noundef %51) #7
  %53 = icmp eq i32 %52, 0
  br i1 %53, label %54, label %55

54:                                               ; preds = %49
  store i32 1, ptr %2, align 4
  store i32 1, ptr %5, align 4
  br label %56

55:                                               ; preds = %49
  store i32 0, ptr %5, align 4
  br label %56

56:                                               ; preds = %55, %54, %48
  call void @llvm.lifetime.end.p0(i64 8, ptr %8) #6
  %57 = load i32, ptr %5, align 4
  switch i32 %57, label %63 [
    i32 0, label %58
  ]

58:                                               ; preds = %56
  br label %59

59:                                               ; preds = %58
  %60 = load i32, ptr %6, align 4, !tbaa !66
  %61 = add nsw i32 %60, 1
  store i32 %61, ptr %6, align 4, !tbaa !66
  br label %35

62:                                               ; preds = %35
  store i32 0, ptr %5, align 4
  br label %63

63:                                               ; preds = %62, %56
  call void @llvm.lifetime.end.p0(i64 4, ptr %7) #6
  call void @llvm.lifetime.end.p0(i64 4, ptr %6) #6
  %64 = load i32, ptr %5, align 4
  switch i32 %64, label %92 [
    i32 0, label %65
  ]

65:                                               ; preds = %63
  br label %85

66:                                               ; preds = %24
  call void @llvm.lifetime.start.p0(i64 8, ptr %9) #6
  %67 = load ptr, ptr %4, align 8, !tbaa !83
  %68 = getelementptr inbounds nuw %struct._GLFWwindow, ptr %67, i32 0, i32 29
  %69 = getelementptr inbounds nuw %struct._GLFWcontext, ptr %68, i32 0, i32 13
  %70 = load ptr, ptr %69, align 8, !tbaa !86
  %71 = call ptr %70(i32 noundef 7939)
  store ptr %71, ptr %9, align 8, !tbaa !87
  %72 = load ptr, ptr %9, align 8, !tbaa !87
  %73 = icmp ne ptr %72, null
  br i1 %73, label %75, label %74

74:                                               ; preds = %66
  call void (i32, ptr, ...) @_glfwInputError(i32 noundef 65544, ptr noundef @.str.35)
  store i32 0, ptr %2, align 4
  store i32 1, ptr %5, align 4
  br label %82

75:                                               ; preds = %66
  %76 = load ptr, ptr %3, align 8, !tbaa !87
  %77 = load ptr, ptr %9, align 8, !tbaa !87
  %78 = call i32 @_glfwStringInExtensionString(ptr noundef %76, ptr noundef %77)
  %79 = icmp ne i32 %78, 0
  br i1 %79, label %80, label %81

80:                                               ; preds = %75
  store i32 1, ptr %2, align 4
  store i32 1, ptr %5, align 4
  br label %82

81:                                               ; preds = %75
  store i32 0, ptr %5, align 4
  br label %82

82:                                               ; preds = %81, %80, %74
  call void @llvm.lifetime.end.p0(i64 8, ptr %9) #6
  %83 = load i32, ptr %5, align 4
  switch i32 %83, label %92 [
    i32 0, label %84
  ]

84:                                               ; preds = %82
  br label %85

85:                                               ; preds = %84, %65
  %86 = load ptr, ptr %4, align 8, !tbaa !83
  %87 = getelementptr inbounds nuw %struct._GLFWwindow, ptr %86, i32 0, i32 29
  %88 = getelementptr inbounds nuw %struct._GLFWcontext, ptr %87, i32 0, i32 17
  %89 = load ptr, ptr %88, align 8, !tbaa !180
  %90 = load ptr, ptr %3, align 8, !tbaa !87
  %91 = call i32 %89(ptr noundef %90)
  store i32 %91, ptr %2, align 4
  store i32 1, ptr %5, align 4
  br label %92

92:                                               ; preds = %85, %82, %63, %23, %17, %12
  call void @llvm.lifetime.end.p0(i64 8, ptr %4) #6
  %93 = load i32, ptr %2, align 4
  ret i32 %93
}