; Function Attrs: nounwind uwtable
define i32 @glfwExtensionSupported(ptr noundef %0) local_unnamed_addr #0 {
  %2 = alloca i32, align 4
  %3 = load i32, ptr @_glfw, align 8, !tbaa !78
  %.not = icmp eq i32 %3, 0
  br i1 %.not, label %4, label %5

4:                                                ; preds = %1
  tail call void (i32, ptr, ...) @_glfwInputError(i32 noundef 65537, ptr noundef null) #7
  br label %.loopexit

5:                                                ; preds = %1
  %6 = tail call ptr @_glfwPlatformGetTls(ptr noundef nonnull getelementptr inbounds nuw (i8, ptr @_glfw, i64 133412)) #7
  %.not29 = icmp eq ptr %6, null
  br i1 %.not29, label %7, label %8

7:                                                ; preds = %5
  tail call void (i32, ptr, ...) @_glfwInputError(i32 noundef 65538, ptr noundef nonnull @.str.33) #7
  br label %.loopexit

8:                                                ; preds = %5
  %9 = load i8, ptr %0, align 1, !tbaa !170
  %10 = icmp eq i8 %9, 0
  br i1 %10, label %11, label %12

11:                                               ; preds = %8
  tail call void (i32, ptr, ...) @_glfwInputError(i32 noundef 65540, ptr noundef nonnull @.str.34) #7
  br label %.loopexit

12:                                               ; preds = %8
  %13 = getelementptr inbounds nuw i8, ptr %6, i64 536
  %14 = load i32, ptr %13, align 8, !tbaa !157
  %15 = icmp sgt i32 %14, 2
  br i1 %15, label %16, label %29

16:                                               ; preds = %12
  call void @llvm.lifetime.start.p0(i64 4, ptr nonnull %2) #7
  %17 = getelementptr inbounds nuw i8, ptr %6, i64 584
  %18 = load ptr, ptr %17, align 8, !tbaa !154
  call void %18(i32 noundef 33309, ptr noundef nonnull %2) #7
  %19 = load i32, ptr %2, align 4, !tbaa !160
  %.not3348 = icmp sgt i32 %19, 0
  br i1 %.not3348, label %.lr.ph, label %._crit_edge

.lr.ph:                                           ; preds = %16
  %20 = getelementptr inbounds nuw i8, ptr %6, i64 576
  br label %24

21:                                               ; preds = %27
  %22 = add nuw nsw i32 %.02549, 1
  %23 = load i32, ptr %2, align 4, !tbaa !160
  %.not33 = icmp slt i32 %22, %23
  br i1 %.not33, label %24, label %._crit_edge

24:                                               ; preds = %.lr.ph, %21
  %.02549 = phi i32 [ 0, %.lr.ph ], [ %22, %21 ]
  %25 = load ptr, ptr %20, align 8, !tbaa !159
  %26 = call ptr %25(i32 noundef 7939, i32 noundef %.02549) #7
  %.not32 = icmp eq ptr %26, null
  br i1 %.not32, label %.thread, label %27

.thread:                                          ; preds = %24
  call void (i32, ptr, ...) @_glfwInputError(i32 noundef 65544, ptr noundef nonnull @.str.35) #7
  br label %.thread38

27:                                               ; preds = %24
  %28 = call i32 @strcmp(ptr noundef nonnull dereferenceable(1) %26, ptr noundef nonnull dereferenceable(1) %0) #8
  %.not47 = icmp eq i32 %28, 0
  br i1 %.not47, label %.thread38, label %21

.thread38:                                        ; preds = %27, %.thread
  %.3.ph = phi i32 [ 0, %.thread ], [ 1, %27 ]
  call void @llvm.lifetime.end.p0(i64 4, ptr nonnull %2) #7
  br label %.loopexit

._crit_edge:                                      ; preds = %21, %16
  call void @llvm.lifetime.end.p0(i64 4, ptr nonnull %2) #7
  br label %.thread44

29:                                               ; preds = %12
  %30 = getelementptr inbounds nuw i8, ptr %6, i64 592
  %31 = load ptr, ptr %30, align 8, !tbaa !155
  %32 = tail call ptr %31(i32 noundef 7939) #7
  %.not30 = icmp eq ptr %32, null
  br i1 %.not30, label %.thread40, label %33

.thread40:                                        ; preds = %29
  tail call void (i32, ptr, ...) @_glfwInputError(i32 noundef 65544, ptr noundef nonnull @.str.35) #7
  br label %.loopexit

33:                                               ; preds = %29
  %34 = tail call ptr @strstr(ptr noundef nonnull readonly dereferenceable(1) %32, ptr noundef nonnull readonly dereferenceable(1) %0) #8
  %.not23.i = icmp eq ptr %34, null
  br i1 %.not23.i, label %.thread44, label %.lr.ph.i

.lr.ph.i:                                         ; preds = %33
  %35 = tail call i64 @strlen(ptr noundef nonnull readonly dereferenceable(1) %0) #8
  br label %36

36:                                               ; preds = %46, %.lr.ph.i
  %37 = phi ptr [ %34, %.lr.ph.i ], [ %47, %46 ]
  %.01424.i = phi ptr [ %32, %.lr.ph.i ], [ %38, %46 ]
  %38 = getelementptr inbounds nuw i8, ptr %37, i64 %35
  %39 = icmp eq ptr %37, %.01424.i
  br i1 %39, label %44, label %40

40:                                               ; preds = %36
  %41 = getelementptr inbounds i8, ptr %37, i64 -1
  %42 = load i8, ptr %41, align 1, !tbaa !170
  %43 = icmp eq i8 %42, 32
  br i1 %43, label %44, label %46

44:                                               ; preds = %40, %36
  %45 = load i8, ptr %38, align 1, !tbaa !170
  switch i8 %45, label %46 [
    i8 32, label %.loopexit
    i8 0, label %.loopexit
  ]

46:                                               ; preds = %44, %40
  %47 = tail call ptr @strstr(ptr noundef nonnull dereferenceable(1) %38, ptr noundef nonnull readonly dereferenceable(1) %0) #8
  %.not.i = icmp eq ptr %47, null
  br i1 %.not.i, label %.thread44, label %36

.thread44:                                        ; preds = %46, %33, %._crit_edge
  %48 = getelementptr inbounds nuw i8, ptr %6, i64 624
  %49 = load ptr, ptr %48, align 8, !tbaa !171
  %50 = call i32 %49(ptr noundef nonnull %0) #7
  br label %.loopexit

.loopexit:                                        ; preds = %44, %44, %.thread40, %.thread38, %.thread44, %11, %7, %4
  %.0 = phi i32 [ 0, %11 ], [ %50, %.thread44 ], [ 0, %7 ], [ 0, %4 ], [ %.3.ph, %.thread38 ], [ 0, %.thread40 ], [ 1, %44 ], [ 1, %44 ]
  ret i32 %.0
}